target datalayout = "e-m:e-p270:32:32-p271:32:32-p272:64:64-i64:64-i128:128-f80:128-n8:16:32:64-S128"
target triple = "x86_64-pc-linux-gnu"

%"class.std::__cxx11::basic_string" = type { %"struct.std::__cxx11::basic_string<char>::_Alloc_hider", i64, %union.anon }
%"struct.std::__cxx11::basic_string<char>::_Alloc_hider" = type { ptr }
%union.anon = type { i64, [8 x i8] }
%"class.std::allocator" = type { i8 }
%"class.std::shared_ptr" = type { %"class.std::__shared_ptr" }
%"class.std::__shared_ptr" = type { ptr, %"class.std::__shared_count" }
%"class.std::__shared_count" = type { ptr }
%"class.std::vector" = type { %"struct.std::_Vector_base" }
%"struct.std::_Vector_base" = type { %"struct.std::_Vector_base<open_spiel::State::PlayerAction, std::allocator<open_spiel::State::PlayerAction>>::_Vector_impl" }
%"struct.std::_Vector_base<open_spiel::State::PlayerAction, std::allocator<open_spiel::State::PlayerAction>>::_Vector_impl" = type { %"struct.std::_Vector_base<open_spiel::State::PlayerAction, std::allocator<open_spiel::State::PlayerAction>>::_Vector_impl_data" }
%"struct.std::_Vector_base<open_spiel::State::PlayerAction, std::allocator<open_spiel::State::PlayerAction>>::_Vector_impl_data" = type { ptr, ptr, ptr }
%"class.std::vector.9" = type { %"struct.std::_Vector_base.10" }
%"struct.std::_Vector_base.10" = type { %"struct.std::_Vector_base<double, std::allocator<double>>::_Vector_impl" }
%"struct.std::_Vector_base<double, std::allocator<double>>::_Vector_impl" = type { %"struct.std::_Vector_base<double, std::allocator<double>>::_Vector_impl_data" }
%"struct.std::_Vector_base<double, std::allocator<double>>::_Vector_impl_data" = type { ptr, ptr, ptr }
%"class.open_spiel::lewis_signaling::LewisSignalingState" = type { %"class.open_spiel::State.base", i32, i32, %"class.std::vector.9", i32, i32, i32, i32 }
%"class.open_spiel::State.base" = type <{ ptr, %"class.std::shared_ptr", i32, i32, %"class.std::vector", i32 }>

@.str.12 = private unnamed_addr constant [15 x i8] c"Invalid player\00", align 1
@.str.13 = private unnamed_addr constant [150 x i8] c"generated/home/dtcxzyw/WorkSpace/Projects/compilers/llvm-opt-benchmark/bench/openspiel/open_spiel/open_spiel/games/lewis_signaling/lewis_signaling.cc\00", align 1
@.str.14 = private unnamed_addr constant [2 x i8] c":\00", align 1
@.str.15 = private unnamed_addr constant [2 x i8] c" \00", align 1
@.str.18 = private unnamed_addr constant [4 x i8] c" = \00", align 1
@.str.31 = private unnamed_addr constant [21 x i8] c"action < num_states_\00", align 1
@.str.32 = private unnamed_addr constant [8 x i8] c"\0Aaction\00", align 1
@.str.33 = private unnamed_addr constant [17 x i8] c", num_states_ = \00", align 1
@.str.34 = private unnamed_addr constant [23 x i8] c"action < num_messages_\00", align 1
@.str.35 = private unnamed_addr constant [19 x i8] c", num_messages_ = \00", align 1

; Function Attrs: mustprogress uwtable
define void @_ZN10open_spiel15lewis_signaling19LewisSignalingState13DoApplyActionEl(ptr noundef nonnull align 8 dereferenceable(112) %0, i64 noundef %1) unnamed_addr #4 align 2 personality ptr @__gxx_personality_v0 {
  %3 = alloca ptr, align 8
  %4 = alloca i64, align 8
  %5 = alloca i64, align 8
  %6 = alloca i32, align 4
  %7 = alloca %"class.std::__cxx11::basic_string", align 8
  %8 = alloca i32, align 4
  %9 = alloca ptr, align 8
  %10 = alloca i32, align 4
  %11 = alloca i64, align 8
  %12 = alloca i32, align 4
  %13 = alloca %"class.std::__cxx11::basic_string", align 8
  %14 = alloca i32, align 4
  %15 = alloca %"class.std::__cxx11::basic_string", align 8
  %16 = alloca %"class.std::allocator", align 1
  store ptr %0, ptr %3, align 8
  store i64 %1, ptr %4, align 8
  %17 = load ptr, ptr %3, align 8
  %18 = load ptr, ptr %17, align 8
  %19 = getelementptr inbounds ptr, ptr %18, i64 16
  %20 = load ptr, ptr %19, align 8
  %21 = call noundef zeroext i1 %20(ptr noundef nonnull align 8 dereferenceable(60) %17)
  br i1 %21, label %22, label %43

22:                                               ; preds = %2
  br label %23

23:                                               ; preds = %22
  %24 = load i64, ptr %4, align 8
  store i64 %24, ptr %5, align 8
  %25 = getelementptr inbounds nuw %"class.open_spiel::lewis_signaling::LewisSignalingState", ptr %17, i32 0, i32 1
  %26 = load i32, ptr %25, align 4
  store i32 %26, ptr %6, align 4
  %27 = load i64, ptr %5, align 8
  %28 = load i32, ptr %6, align 4
  %29 = sext i32 %28 to i64
  %30 = icmp slt i64 %27, %29
  br i1 %30, label %37, label %31

31:                                               ; preds = %23
  store i32 173, ptr %8, align 4
  call void @_ZN10open_spiel8internal11SpielStrCatIJRA150_KcRA2_S2_iS6_RA21_S2_RA8_S2_RA4_S2_RlRA17_S2_RiEEENSt7__cxx1112basic_stringIcSt11char_traitsIcESaIcEEEDpOT_(ptr dead_on_unwind writable sret(%"class.std::__cxx11::basic_string") align 8 %7, ptr noundef nonnull align 1 dereferenceable(150) @.str.13, ptr noundef nonnull align 1 dereferenceable(2) @.str.14, ptr noundef nonnull align 4 dereferenceable(4) %8, ptr noundef nonnull align 1 dereferenceable(2) @.str.15, ptr noundef nonnull align 1 dereferenceable(21) @.str.31, ptr noundef nonnull align 1 dereferenceable(8) @.str.32, ptr noundef nonnull align 1 dereferenceable(4) @.str.18, ptr noundef nonnull align 8 dereferenceable(8) %5, ptr noundef nonnull align 1 dereferenceable(17) @.str.33, ptr noundef nonnull align 4 dereferenceable(4) %6)
  invoke void @_ZN10open_spiel15SpielFatalErrorERKNSt7__cxx1112basic_stringIcSt11char_traitsIcESaIcEEE(ptr noundef nonnull align 8 dereferenceable(32) %7) #16
          to label %32 unwind label %33

32:                                               ; preds = %31
  unreachable

33:                                               ; preds = %31
  %34 = landingpad { ptr, i32 }
          cleanup
  %35 = extractvalue { ptr, i32 } %34, 0
  store ptr %35, ptr %9, align 8
  %36 = extractvalue { ptr, i32 } %34, 1
  store i32 %36, ptr %10, align 4
  call void @_ZNSt7__cxx1112basic_stringIcSt11char_traitsIcESaIcEED1Ev(ptr noundef nonnull align 8 dereferenceable(32) %7) #3
  br label %91

37:                                               ; preds = %23
  br label %38

38:                                               ; preds = %37
  %39 = load i64, ptr %4, align 8
  %40 = trunc i64 %39 to i32
  %41 = getelementptr inbounds nuw %"class.open_spiel::lewis_signaling::LewisSignalingState", ptr %17, i32 0, i32 5
  store i32 %40, ptr %41, align 4
  %42 = getelementptr inbounds nuw %"class.open_spiel::lewis_signaling::LewisSignalingState", ptr %17, i32 0, i32 4
  store i32 0, ptr %42, align 8
  br label %90

43:                                               ; preds = %2
  %44 = getelementptr inbounds nuw %"class.open_spiel::lewis_signaling::LewisSignalingState", ptr %17, i32 0, i32 4
  %45 = load i32, ptr %44, align 8
  %46 = icmp eq i32 %45, 0
  br i1 %46, label %47, label %68

47:                                               ; preds = %43
  br label %48

48:                                               ; preds = %47
  %49 = load i64, ptr %4, align 8
  store i64 %49, ptr %11, align 8
  %50 = getelementptr inbounds nuw %"class.open_spiel::lewis_signaling::LewisSignalingState", ptr %17, i32 0, i32 2
  %51 = load i32, ptr %50, align 8
  store i32 %51, ptr %12, align 4
  %52 = load i64, ptr %11, align 8
  %53 = load i32, ptr %12, align 4
  %54 = sext i32 %53 to i64
  %55 = icmp slt i64 %52, %54
  br i1 %55, label %62, label %56

56:                                               ; preds = %48
  store i32 178, ptr %14, align 4
  call void @_ZN10open_spiel8internal11SpielStrCatIJRA150_KcRA2_S2_iS6_RA23_S2_RA8_S2_RA4_S2_RlRA19_S2_RiEEENSt7__cxx1112basic_stringIcSt11char_traitsIcESaIcEEEDpOT_(ptr dead_on_unwind writable sret(%"class.std::__cxx11::basic_string") align 8 %13, ptr noundef nonnull align 1 dereferenceable(150) @.str.13, ptr noundef nonnull align 1 dereferenceable(2) @.str.14, ptr noundef nonnull align 4 dereferenceable(4) %14, ptr noundef nonnull align 1 dereferenceable(2) @.str.15, ptr noundef nonnull align 1 dereferenceable(23) @.str.34, ptr noundef nonnull align 1 dereferenceable(8) @.str.32, ptr noundef nonnull align 1 dereferenceable(4) @.str.18, ptr noundef nonnull align 8 dereferenceable(8) %11, ptr noundef nonnull align 1 dereferenceable(19) @.str.35, ptr noundef nonnull align 4 dereferenceable(4) %12)
  invoke void @_ZN10open_spiel15SpielFatalErrorERKNSt7__cxx1112basic_stringIcSt11char_traitsIcESaIcEEE(ptr noundef nonnull align 8 dereferenceable(32) %13) #16
          to label %57 unwind label %58

57:                                               ; preds = %56
  unreachable

58:                                               ; preds = %56
  %59 = landingpad { ptr, i32 }
          cleanup
  %60 = extractvalue { ptr, i32 } %59, 0
  store ptr %60, ptr %9, align 8
  %61 = extractvalue { ptr, i32 } %59, 1
  store i32 %61, ptr %10, align 4
  call void @_ZNSt7__cxx1112basic_stringIcSt11char_traitsIcESaIcEED1Ev(ptr noundef nonnull align 8 dereferenceable(32) %13) #3
  br label %91

62:                                               ; preds = %48
  br label %63

63:                                               ; preds = %62
  %64 = load i64, ptr %4, align 8
  %65 = trunc i64 %64 to i32
  %66 = getelementptr inbounds nuw %"class.open_spiel::lewis_signaling::LewisSignalingState", ptr %17, i32 0, i32 6
  store i32 %65, ptr %66, align 8
  %67 = getelementptr inbounds nuw %"class.open_spiel::lewis_signaling::LewisSignalingState", ptr %17, i32 0, i32 4
  store i32 1, ptr %67, align 8
  br label %89

68:                                               ; preds = %43
  %69 = getelementptr inbounds nuw %"class.open_spiel::lewis_signaling::LewisSignalingState", ptr %17, i32 0, i32 4
  %70 = load i32, ptr %69, align 8
  %71 = icmp eq i32 %70, 1
  br i1 %71, label %72, label %76

72:                                               ; preds = %68
  %73 = load i64, ptr %4, align 8
  %74 = trunc i64 %73 to i32
  %75 = getelementptr inbounds nuw %"class.open_spiel::lewis_signaling::LewisSignalingState", ptr %17, i32 0, i32 7
  store i32 %74, ptr %75, align 4
  br label %88

76:                                               ; preds = %68
  call void @_ZNSaIcEC1Ev(ptr noundef nonnull align 1 dereferenceable(1) %16) #3
  invoke void @_ZNSt7__cxx1112basic_stringIcSt11char_traitsIcESaIcEEC2IS3_EEPKcRKS3_(ptr noundef nonnull align 8 dereferenceable(32) %15, ptr noundef @.str.12, ptr noundef nonnull align 1 dereferenceable(1) %16)
          to label %77 unwind label %79

77:                                               ; preds = %76
  invoke void @_ZN10open_spiel15SpielFatalErrorERKNSt7__cxx1112basic_stringIcSt11char_traitsIcESaIcEEE(ptr noundef nonnull align 8 dereferenceable(32) %15) #16
          to label %78 unwind label %83

78:                                               ; preds = %77
  unreachable

79:                                               ; preds = %76
  %80 = landingpad { ptr, i32 }
          cleanup
  %81 = extractvalue { ptr, i32 } %80, 0
  store ptr %81, ptr %9, align 8
  %82 = extractvalue { ptr, i32 } %80, 1
  store i32 %82, ptr %10, align 4
  br label %87

83:                                               ; preds = %77
  %84 = landingpad { ptr, i32 }
          cleanup
  %85 = extractvalue { ptr, i32 } %84, 0
  store ptr %85, ptr %9, align 8
  %86 = extractvalue { ptr, i32 } %84, 1
  store i32 %86, ptr %10, align 4
  call void @_ZNSt7__cxx1112basic_stringIcSt11char_traitsIcESaIcEED1Ev(ptr noundef nonnull align 8 dereferenceable(32) %15) #3
  br label %87

87:                                               ; preds = %83, %79
  call void @_ZNSaIcED1Ev(ptr noundef nonnull align 1 dereferenceable(1) %16) #3
  br label %91

88:                                               ; preds = %72
  br label %89

89:                                               ; preds = %88, %63
  br label %90

90:                                               ; preds = %89, %38
  ret void

91:                                               ; preds = %87, %58, %33
  %92 = load ptr, ptr %9, align 8
  %93 = load i32, ptr %10, align 4
  %94 = insertvalue { ptr, i32 } poison, ptr %92, 0
  %95 = insertvalue { ptr, i32 } %94, i32 %93, 1
  resume { ptr, i32 } %95
}