; Function Attrs: mustprogress uwtable
define void @_ZN10open_spiel15lewis_signaling19LewisSignalingState13DoApplyActionEl(ptr noundef nonnull align 8 dereferenceable(112) %0, i64 noundef %1) unnamed_addr #3 align 2 personality ptr @__gxx_personality_v0 {
  %3 = alloca i64, align 8
  %4 = alloca i32, align 4
  %5 = alloca %"class.std::__cxx11::basic_string", align 8
  %6 = alloca i32, align 4
  %7 = alloca i64, align 8
  %8 = alloca i32, align 4
  %9 = alloca %"class.std::__cxx11::basic_string", align 8
  %10 = alloca i32, align 4
  %11 = alloca %"class.std::__cxx11::basic_string", align 8
  %12 = alloca %"class.std::allocator", align 1
  %13 = load ptr, ptr %0, align 8
  %14 = getelementptr inbounds i8, ptr %13, i64 128
  %15 = load ptr, ptr %14, align 8
  %16 = tail call noundef zeroext i1 %15(ptr noundef nonnull align 8 dereferenceable(60) %0)
  br i1 %16, label %17, label %30

17:                                               ; preds = %2
  store i64 %1, ptr %3, align 8
  %18 = getelementptr inbounds nuw i8, ptr %0, i64 60
  %19 = load i32, ptr %18, align 4
  store i32 %19, ptr %4, align 4
  %20 = sext i32 %19 to i64
  %21 = icmp slt i64 %1, %20
  br i1 %21, label %26, label %22

22:                                               ; preds = %17
  store i32 173, ptr %6, align 4
  call void @_ZN10open_spiel8internal11SpielStrCatIJRA150_KcRA2_S2_iS6_RA21_S2_RA8_S2_RA4_S2_RlRA17_S2_RiEEENSt7__cxx1112basic_stringIcSt11char_traitsIcESaIcEEEDpOT_(ptr dead_on_unwind nonnull writable sret(%"class.std::__cxx11::basic_string") align 8 %5, ptr noundef nonnull align 1 dereferenceable(150) @.str.13, ptr noundef nonnull align 1 dereferenceable(2) @.str.14, ptr noundef nonnull align 4 dereferenceable(4) %6, ptr noundef nonnull align 1 dereferenceable(2) @.str.15, ptr noundef nonnull align 1 dereferenceable(21) @.str.31, ptr noundef nonnull align 1 dereferenceable(8) @.str.32, ptr noundef nonnull align 1 dereferenceable(4) @.str.18, ptr noundef nonnull align 8 dereferenceable(8) %3, ptr noundef nonnull align 1 dereferenceable(17) @.str.33, ptr noundef nonnull align 4 dereferenceable(4) %4)
  invoke void @_ZN10open_spiel15SpielFatalErrorERKNSt7__cxx1112basic_stringIcSt11char_traitsIcESaIcEEE(ptr noundef nonnull align 8 dereferenceable(32) %5) #23
          to label %23 unwind label %24

23:                                               ; preds = %22
  unreachable

24:                                               ; preds = %22
  %25 = landingpad { ptr, i32 }
          cleanup
  call void @_ZNSt7__cxx1112basic_stringIcSt11char_traitsIcESaIcEED1Ev(ptr noundef nonnull align 8 dereferenceable(32) %5) #24
  br label %57

26:                                               ; preds = %17
  %27 = trunc i64 %1 to i32
  %28 = getelementptr inbounds nuw i8, ptr %0, i64 100
  store i32 %27, ptr %28, align 4
  %29 = getelementptr inbounds nuw i8, ptr %0, i64 96
  store i32 0, ptr %29, align 8
  br label %56

30:                                               ; preds = %2
  %31 = getelementptr inbounds nuw i8, ptr %0, i64 96
  %32 = load i32, ptr %31, align 8
  switch i32 %32, label %48 [
    i32 0, label %33
    i32 1, label %45
  ]

33:                                               ; preds = %30
  store i64 %1, ptr %7, align 8
  %34 = getelementptr inbounds nuw i8, ptr %0, i64 64
  %35 = load i32, ptr %34, align 8
  store i32 %35, ptr %8, align 4
  %36 = sext i32 %35 to i64
  %37 = icmp slt i64 %1, %36
  br i1 %37, label %42, label %38

38:                                               ; preds = %33
  store i32 178, ptr %10, align 4
  call void @_ZN10open_spiel8internal11SpielStrCatIJRA150_KcRA2_S2_iS6_RA23_S2_RA8_S2_RA4_S2_RlRA19_S2_RiEEENSt7__cxx1112basic_stringIcSt11char_traitsIcESaIcEEEDpOT_(ptr dead_on_unwind nonnull writable sret(%"class.std::__cxx11::basic_string") align 8 %9, ptr noundef nonnull align 1 dereferenceable(150) @.str.13, ptr noundef nonnull align 1 dereferenceable(2) @.str.14, ptr noundef nonnull align 4 dereferenceable(4) %10, ptr noundef nonnull align 1 dereferenceable(2) @.str.15, ptr noundef nonnull align 1 dereferenceable(23) @.str.34, ptr noundef nonnull align 1 dereferenceable(8) @.str.32, ptr noundef nonnull align 1 dereferenceable(4) @.str.18, ptr noundef nonnull align 8 dereferenceable(8) %7, ptr noundef nonnull align 1 dereferenceable(19) @.str.35, ptr noundef nonnull align 4 dereferenceable(4) %8)
  invoke void @_ZN10open_spiel15SpielFatalErrorERKNSt7__cxx1112basic_stringIcSt11char_traitsIcESaIcEEE(ptr noundef nonnull align 8 dereferenceable(32) %9) #23
          to label %39 unwind label %40

39:                                               ; preds = %38
  unreachable

40:                                               ; preds = %38
  %41 = landingpad { ptr, i32 }
          cleanup
  call void @_ZNSt7__cxx1112basic_stringIcSt11char_traitsIcESaIcEED1Ev(ptr noundef nonnull align 8 dereferenceable(32) %9) #24
  br label %57

42:                                               ; preds = %33
  %43 = trunc i64 %1 to i32
  %44 = getelementptr inbounds nuw i8, ptr %0, i64 104
  store i32 %43, ptr %44, align 8
  store i32 1, ptr %31, align 8
  br label %56

45:                                               ; preds = %30
  %46 = trunc i64 %1 to i32
  %47 = getelementptr inbounds nuw i8, ptr %0, i64 108
  store i32 %46, ptr %47, align 4
  br label %56

48:                                               ; preds = %30
  call void @_ZNSaIcEC1Ev(ptr noundef nonnull align 1 dereferenceable(1) %12) #24
  invoke void @_ZNSt7__cxx1112basic_stringIcSt11char_traitsIcESaIcEEC2IS3_EEPKcRKS3_(ptr noundef nonnull align 8 dereferenceable(32) %11, ptr noundef nonnull @.str.12, ptr noundef nonnull align 1 dereferenceable(1) %12)
          to label %49 unwind label %51

49:                                               ; preds = %48
  invoke void @_ZN10open_spiel15SpielFatalErrorERKNSt7__cxx1112basic_stringIcSt11char_traitsIcESaIcEEE(ptr noundef nonnull align 8 dereferenceable(32) %11) #23
          to label %50 unwind label %53

50:                                               ; preds = %49
  unreachable

51:                                               ; preds = %48
  %52 = landingpad { ptr, i32 }
          cleanup
  br label %55

53:                                               ; preds = %49
  %54 = landingpad { ptr, i32 }
          cleanup
  call void @_ZNSt7__cxx1112basic_stringIcSt11char_traitsIcESaIcEED1Ev(ptr noundef nonnull align 8 dereferenceable(32) %11) #24
  br label %55

55:                                               ; preds = %53, %51
  %.pn = phi { ptr, i32 } [ %54, %53 ], [ %52, %51 ]
  call void @_ZNSaIcED1Ev(ptr noundef nonnull align 1 dereferenceable(1) %12) #24
  br label %57

56:                                               ; preds = %42, %45, %26
  ret void

57:                                               ; preds = %55, %40, %24
  %.pn11 = phi { ptr, i32 } [ %25, %24 ], [ %41, %40 ], [ %.pn, %55 ]
  resume { ptr, i32 } %.pn11
}